; Function Attrs: nounwind uwtable
define ptr @l_Std_Time_Month_Ordinal_toNat(ptr noundef %0) local_unnamed_addr #0 {
  %2 = ptrtoint ptr %0 to i64
  %3 = and i64 %2, 1
  %.not.i.i = icmp eq i64 %3, 0
  br i1 %.not.i.i, label %lean_int_lt.exit.i, label %4, !prof !13

4:                                                ; preds = %1
  %5 = and i64 %2, 4294967296
  %.not.i = icmp eq i64 %5, 0
  br i1 %.not.i, label %lean_nat_abs.exit, label %7

lean_int_lt.exit.i:                               ; preds = %1
  %6 = tail call zeroext i1 @lean_int_big_lt(ptr noundef %0, ptr noundef nonnull inttoptr (i64 1 to ptr)) #5
  br i1 %6, label %19, label %23

7:                                                ; preds = %4
  %8 = shl i64 %2, 31
  %9 = ashr i64 %8, 32
  %10 = sub nsw i64 0, %9
  %11 = add nsw i64 %9, 2147483647
  %12 = icmp ult i64 %11, 4294967296
  br i1 %12, label %13, label %17, !prof !10

13:                                               ; preds = %7
  %14 = shl nuw nsw i64 %10, 1
  %15 = or disjoint i64 %14, 1
  %16 = inttoptr i64 %15 to ptr
  br label %lean_int_neg.exit.i

17:                                               ; preds = %7
  %18 = tail call ptr @lean_big_int64_to_int(i64 noundef range(i64 -4611686016279904256, 4611686018427387905) %10) #5
  br label %lean_int_neg.exit.i

19:                                               ; preds = %lean_int_lt.exit.i
  %20 = tail call ptr @lean_int_big_neg(ptr noundef %0) #5
  br label %lean_int_neg.exit.i

lean_int_neg.exit.i:                              ; preds = %19, %17, %13
  %.0.i6.i = phi ptr [ %20, %19 ], [ %16, %13 ], [ %18, %17 ]
  %21 = ptrtoint ptr %.0.i6.i to i64
  %22 = and i64 %21, 1
  %.not.i7.i = icmp eq i64 %22, 0
  br i1 %.not.i7.i, label %lean_int_to_nat.exit.sink.split.i, label %lean_nat_abs.exit

23:                                               ; preds = %lean_int_lt.exit.i
  %.val.i.i = load i32, ptr %0, align 4, !tbaa !5
  %24 = icmp sgt i32 %.val.i.i, 0
  br i1 %24, label %25, label %27, !prof !10

25:                                               ; preds = %23
  %26 = add nuw i32 %.val.i.i, 1
  store i32 %26, ptr %0, align 4, !tbaa !5
  br label %lean_int_to_nat.exit.sink.split.i

27:                                               ; preds = %23
  %.not.i9.i = icmp eq i32 %.val.i.i, 0
  br i1 %.not.i9.i, label %lean_int_to_nat.exit.sink.split.i, label %28

28:                                               ; preds = %27
  tail call void @lean_inc_ref_cold(ptr noundef nonnull %0) #5
  br label %lean_int_to_nat.exit.sink.split.i

lean_int_to_nat.exit.sink.split.i:                ; preds = %28, %27, %25, %lean_int_neg.exit.i
  %.sink.i = phi ptr [ %.0.i6.i, %lean_int_neg.exit.i ], [ %0, %28 ], [ %0, %27 ], [ %0, %25 ]
  %29 = tail call ptr @lean_big_int_to_nat(ptr noundef %.sink.i) #5
  br label %lean_nat_abs.exit

lean_nat_abs.exit:                                ; preds = %4, %lean_int_neg.exit.i, %lean_int_to_nat.exit.sink.split.i
  %.0.i = phi ptr [ %.0.i6.i, %lean_int_neg.exit.i ], [ %0, %4 ], [ %29, %lean_int_to_nat.exit.sink.split.i ]
  ret ptr %.0.i
}